target datalayout = "e-m:e-p270:32:32-p271:32:32-p272:64:64-i64:64-i128:128-f80:128-n8:16:32:64-S128"
target triple = "x86_64-pc-linux-gnu"

%struct._lv_fs_drv_t = type { i8, i32, ptr, ptr, ptr, ptr, ptr, ptr, ptr, ptr, ptr, ptr, ptr }
%struct.lv_fs_file_t = type { ptr, ptr, ptr }
%struct._lv_fs_file_cache_t = type { i32, i32, i32, ptr }

; Function Attrs: nounwind uwtable
define i32 @lv_fs_close(ptr noundef %0) #0 {
  %2 = alloca i32, align 4
  %3 = alloca ptr, align 8
  %4 = alloca i32, align 4
  store ptr %0, ptr %3, align 8, !tbaa !6
  %5 = load ptr, ptr %3, align 8, !tbaa !6
  %6 = getelementptr inbounds nuw %struct.lv_fs_file_t, ptr %5, i32 0, i32 1
  %7 = load ptr, ptr %6, align 8, !tbaa !18
  %8 = icmp eq ptr %7, null
  br i1 %8, label %9, label %10

9:                                                ; preds = %1
  store i32 11, ptr %2, align 4
  br label %74

10:                                               ; preds = %1
  %11 = load ptr, ptr %3, align 8, !tbaa !6
  %12 = getelementptr inbounds nuw %struct.lv_fs_file_t, ptr %11, i32 0, i32 1
  %13 = load ptr, ptr %12, align 8, !tbaa !18
  %14 = getelementptr inbounds nuw %struct._lv_fs_drv_t, ptr %13, i32 0, i32 4
  %15 = load ptr, ptr %14, align 8, !tbaa !32
  %16 = icmp eq ptr %15, null
  br i1 %16, label %17, label %18

17:                                               ; preds = %10
  store i32 9, ptr %2, align 4
  br label %74

18:                                               ; preds = %10
  call void @llvm.lifetime.start.p0(i64 4, ptr %4) #4
  %19 = load ptr, ptr %3, align 8, !tbaa !6
  %20 = getelementptr inbounds nuw %struct.lv_fs_file_t, ptr %19, i32 0, i32 1
  %21 = load ptr, ptr %20, align 8, !tbaa !18
  %22 = getelementptr inbounds nuw %struct._lv_fs_drv_t, ptr %21, i32 0, i32 4
  %23 = load ptr, ptr %22, align 8, !tbaa !32
  %24 = load ptr, ptr %3, align 8, !tbaa !6
  %25 = getelementptr inbounds nuw %struct.lv_fs_file_t, ptr %24, i32 0, i32 1
  %26 = load ptr, ptr %25, align 8, !tbaa !18
  %27 = load ptr, ptr %3, align 8, !tbaa !6
  %28 = getelementptr inbounds nuw %struct.lv_fs_file_t, ptr %27, i32 0, i32 0
  %29 = load ptr, ptr %28, align 8, !tbaa !21
  %30 = call i32 %23(ptr noundef %26, ptr noundef %29)
  store i32 %30, ptr %4, align 4, !tbaa !14
  %31 = load ptr, ptr %3, align 8, !tbaa !6
  %32 = getelementptr inbounds nuw %struct.lv_fs_file_t, ptr %31, i32 0, i32 1
  %33 = load ptr, ptr %32, align 8, !tbaa !18
  %34 = getelementptr inbounds nuw %struct._lv_fs_drv_t, ptr %33, i32 0, i32 1
  %35 = load i32, ptr %34, align 4, !tbaa !20
  %36 = icmp ne i32 %35, 0
  br i1 %36, label %37, label %66

37:                                               ; preds = %18
  %38 = load ptr, ptr %3, align 8, !tbaa !6
  %39 = getelementptr inbounds nuw %struct.lv_fs_file_t, ptr %38, i32 0, i32 2
  %40 = load ptr, ptr %39, align 8, !tbaa !23
  %41 = icmp ne ptr %40, null
  br i1 %41, label %42, label %66

42:                                               ; preds = %37
  %43 = load ptr, ptr %3, align 8, !tbaa !6
  %44 = getelementptr inbounds nuw %struct.lv_fs_file_t, ptr %43, i32 0, i32 1
  %45 = load ptr, ptr %44, align 8, !tbaa !18
  %46 = getelementptr inbounds nuw %struct._lv_fs_drv_t, ptr %45, i32 0, i32 1
  %47 = load i32, ptr %46, align 4, !tbaa !20
  %48 = icmp ne i32 %47, -1
  br i1 %48, label %49, label %62

49:                                               ; preds = %42
  %50 = load ptr, ptr %3, align 8, !tbaa !6
  %51 = getelementptr inbounds nuw %struct.lv_fs_file_t, ptr %50, i32 0, i32 2
  %52 = load ptr, ptr %51, align 8, !tbaa !23
  %53 = getelementptr inbounds nuw %struct._lv_fs_file_cache_t, ptr %52, i32 0, i32 3
  %54 = load ptr, ptr %53, align 8, !tbaa !26
  %55 = icmp ne ptr %54, null
  br i1 %55, label %56, label %62

56:                                               ; preds = %49
  %57 = load ptr, ptr %3, align 8, !tbaa !6
  %58 = getelementptr inbounds nuw %struct.lv_fs_file_t, ptr %57, i32 0, i32 2
  %59 = load ptr, ptr %58, align 8, !tbaa !23
  %60 = getelementptr inbounds nuw %struct._lv_fs_file_cache_t, ptr %59, i32 0, i32 3
  %61 = load ptr, ptr %60, align 8, !tbaa !26
  call void @lv_free(ptr noundef %61)
  br label %62

62:                                               ; preds = %56, %49, %42
  %63 = load ptr, ptr %3, align 8, !tbaa !6
  %64 = getelementptr inbounds nuw %struct.lv_fs_file_t, ptr %63, i32 0, i32 2
  %65 = load ptr, ptr %64, align 8, !tbaa !23
  call void @lv_free(ptr noundef %65)
  br label %66

66:                                               ; preds = %62, %37, %18
  %67 = load ptr, ptr %3, align 8, !tbaa !6
  %68 = getelementptr inbounds nuw %struct.lv_fs_file_t, ptr %67, i32 0, i32 0
  store ptr null, ptr %68, align 8, !tbaa !21
  %69 = load ptr, ptr %3, align 8, !tbaa !6
  %70 = getelementptr inbounds nuw %struct.lv_fs_file_t, ptr %69, i32 0, i32 1
  store ptr null, ptr %70, align 8, !tbaa !18
  %71 = load ptr, ptr %3, align 8, !tbaa !6
  %72 = getelementptr inbounds nuw %struct.lv_fs_file_t, ptr %71, i32 0, i32 2
  store ptr null, ptr %72, align 8, !tbaa !23
  %73 = load i32, ptr %4, align 4, !tbaa !14
  store i32 %73, ptr %2, align 4
  call void @llvm.lifetime.end.p0(i64 4, ptr %4) #4
  br label %74

74:                                               ; preds = %66, %17, %9
  %75 = load i32, ptr %2, align 4
  ret i32 %75
}