; Function Attrs: nounwind uwtable
define i32 @lv_fs_close(ptr nocapture noundef %0) local_unnamed_addr #0 {
  %2 = getelementptr inbounds nuw i8, ptr %0, i64 8
  %3 = load ptr, ptr %2, align 8, !tbaa !15
  %4 = icmp eq ptr %3, null
  br i1 %4, label %26, label %5

5:                                                ; preds = %1
  %6 = getelementptr inbounds nuw i8, ptr %3, i64 24
  %7 = load ptr, ptr %6, align 8, !tbaa !28
  %8 = icmp eq ptr %7, null
  br i1 %8, label %26, label %9

9:                                                ; preds = %5
  %10 = load ptr, ptr %0, align 8, !tbaa !18
  %11 = tail call i32 %7(ptr noundef nonnull %3, ptr noundef %10) #6
  %12 = load ptr, ptr %2, align 8, !tbaa !15
  %13 = getelementptr inbounds nuw i8, ptr %12, i64 4
  %14 = load i32, ptr %13, align 4, !tbaa !17
  %.not = icmp eq i32 %14, 0
  br i1 %.not, label %25, label %15

15:                                               ; preds = %9
  %16 = getelementptr inbounds nuw i8, ptr %0, i64 16
  %17 = load ptr, ptr %16, align 8, !tbaa !19
  %.not20 = icmp eq ptr %17, null
  br i1 %.not20, label %25, label %18

18:                                               ; preds = %15
  %.not21 = icmp eq i32 %14, -1
  br i1 %.not21, label %23, label %19

19:                                               ; preds = %18
  %20 = getelementptr inbounds nuw i8, ptr %17, i64 16
  %21 = load ptr, ptr %20, align 8, !tbaa !22
  %.not22 = icmp eq ptr %21, null
  br i1 %.not22, label %23, label %22

22:                                               ; preds = %19
  tail call void @lv_free(ptr noundef nonnull %21) #6
  %.pre = load ptr, ptr %16, align 8, !tbaa !19
  br label %23

23:                                               ; preds = %22, %19, %18
  %24 = phi ptr [ %.pre, %22 ], [ %17, %19 ], [ %17, %18 ]
  tail call void @lv_free(ptr noundef %24) #6
  br label %25

25:                                               ; preds = %23, %15, %9
  tail call void @llvm.memset.p0.i64(ptr noundef nonnull align 8 dereferenceable(24) %0, i8 0, i64 24, i1 false)
  br label %26

26:                                               ; preds = %5, %1, %25
  %.0 = phi i32 [ %11, %25 ], [ 11, %1 ], [ 9, %5 ]
  ret i32 %.0
}